target datalayout = "e-m:e-p270:32:32-p271:32:32-p272:64:64-i64:64-i128:128-f80:128-n8:16:32:64-S128"
target triple = "x86_64-pc-linux-gnu"

; Function Attrs: noinline nounwind uwtable
define internal void @sscal_kernel_inc_8(i64 noundef %0, ptr noundef %1, ptr noundef %2, i64 noundef %3) #2 {
  %5 = alloca i64, align 8
  %6 = alloca ptr, align 8
  %7 = alloca ptr, align 8
  %8 = alloca i64, align 8
  %9 = alloca i64, align 8
  %10 = alloca i64, align 8
  %11 = alloca i64, align 8
  %12 = alloca float, align 4
  %13 = alloca float, align 4
  %14 = alloca float, align 4
  %15 = alloca float, align 4
  %16 = alloca float, align 4
  store i64 %0, ptr %5, align 8, !tbaa !3
  store ptr %1, ptr %6, align 8, !tbaa !9
  store ptr %2, ptr %7, align 8, !tbaa !9
  store i64 %3, ptr %8, align 8, !tbaa !3
  call void @llvm.lifetime.start.p0(i64 8, ptr %9) #6
  call void @llvm.lifetime.start.p0(i64 8, ptr %10) #6
  %17 = load i64, ptr %8, align 8, !tbaa !3
  %18 = mul nsw i64 2, %17
  store i64 %18, ptr %10, align 8, !tbaa !3
  call void @llvm.lifetime.start.p0(i64 8, ptr %11) #6
  %19 = load i64, ptr %10, align 8, !tbaa !3
  %20 = load i64, ptr %8, align 8, !tbaa !3
  %21 = add nsw i64 %19, %20
  store i64 %21, ptr %11, align 8, !tbaa !3
  call void @llvm.lifetime.start.p0(i64 4, ptr %12) #6
  call void @llvm.lifetime.start.p0(i64 4, ptr %13) #6
  call void @llvm.lifetime.start.p0(i64 4, ptr %14) #6
  call void @llvm.lifetime.start.p0(i64 4, ptr %15) #6
  call void @llvm.lifetime.start.p0(i64 4, ptr %16) #6
  %22 = load ptr, ptr %6, align 8, !tbaa !9
  %23 = getelementptr inbounds float, ptr %22, i64 0
  %24 = load float, ptr %23, align 4, !tbaa !7
  store float %24, ptr %16, align 4, !tbaa !7
  store i64 0, ptr %9, align 8, !tbaa !3
  br label %25

25:                                               ; preds = %72, %4
  %26 = load i64, ptr %9, align 8, !tbaa !3
  %27 = load i64, ptr %5, align 8, !tbaa !3
  %28 = icmp slt i64 %26, %27
  br i1 %28, label %29, label %75

29:                                               ; preds = %25
  %30 = load float, ptr %16, align 4, !tbaa !7
  %31 = load ptr, ptr %7, align 8, !tbaa !9
  %32 = getelementptr inbounds float, ptr %31, i64 0
  %33 = load float, ptr %32, align 4, !tbaa !7
  %34 = fmul float %30, %33
  store float %34, ptr %12, align 4, !tbaa !7
  %35 = load float, ptr %16, align 4, !tbaa !7
  %36 = load ptr, ptr %7, align 8, !tbaa !9
  %37 = load i64, ptr %8, align 8, !tbaa !3
  %38 = getelementptr inbounds float, ptr %36, i64 %37
  %39 = load float, ptr %38, align 4, !tbaa !7
  %40 = fmul float %35, %39
  store float %40, ptr %13, align 4, !tbaa !7
  %41 = load float, ptr %16, align 4, !tbaa !7
  %42 = load ptr, ptr %7, align 8, !tbaa !9
  %43 = load i64, ptr %10, align 8, !tbaa !3
  %44 = getelementptr inbounds float, ptr %42, i64 %43
  %45 = load float, ptr %44, align 4, !tbaa !7
  %46 = fmul float %41, %45
  store float %46, ptr %14, align 4, !tbaa !7
  %47 = load float, ptr %16, align 4, !tbaa !7
  %48 = load ptr, ptr %7, align 8, !tbaa !9
  %49 = load i64, ptr %11, align 8, !tbaa !3
  %50 = getelementptr inbounds float, ptr %48, i64 %49
  %51 = load float, ptr %50, align 4, !tbaa !7
  %52 = fmul float %47, %51
  store float %52, ptr %15, align 4, !tbaa !7
  %53 = load float, ptr %12, align 4, !tbaa !7
  %54 = load ptr, ptr %7, align 8, !tbaa !9
  %55 = getelementptr inbounds float, ptr %54, i64 0
  store float %53, ptr %55, align 4, !tbaa !7
  %56 = load float, ptr %13, align 4, !tbaa !7
  %57 = load ptr, ptr %7, align 8, !tbaa !9
  %58 = load i64, ptr %8, align 8, !tbaa !3
  %59 = getelementptr inbounds float, ptr %57, i64 %58
  store float %56, ptr %59, align 4, !tbaa !7
  %60 = load float, ptr %14, align 4, !tbaa !7
  %61 = load ptr, ptr %7, align 8, !tbaa !9
  %62 = load i64, ptr %10, align 8, !tbaa !3
  %63 = getelementptr inbounds float, ptr %61, i64 %62
  store float %60, ptr %63, align 4, !tbaa !7
  %64 = load float, ptr %15, align 4, !tbaa !7
  %65 = load ptr, ptr %7, align 8, !tbaa !9
  %66 = load i64, ptr %11, align 8, !tbaa !3
  %67 = getelementptr inbounds float, ptr %65, i64 %66
  store float %64, ptr %67, align 4, !tbaa !7
  %68 = load i64, ptr %8, align 8, !tbaa !3
  %69 = mul nsw i64 4, %68
  %70 = load ptr, ptr %7, align 8, !tbaa !9
  %71 = getelementptr inbounds float, ptr %70, i64 %69
  store ptr %71, ptr %7, align 8, !tbaa !9
  br label %72

72:                                               ; preds = %29
  %73 = load i64, ptr %9, align 8, !tbaa !3
  %74 = add nsw i64 %73, 4
  store i64 %74, ptr %9, align 8, !tbaa !3
  br label %25, !llvm.loop !20

75:                                               ; preds = %25
  call void @llvm.lifetime.end.p0(i64 4, ptr %16) #6
  call void @llvm.lifetime.end.p0(i64 4, ptr %15) #6
  call void @llvm.lifetime.end.p0(i64 4, ptr %14) #6
  call void @llvm.lifetime.end.p0(i64 4, ptr %13) #6
  call void @llvm.lifetime.end.p0(i64 4, ptr %12) #6
  call void @llvm.lifetime.end.p0(i64 8, ptr %11) #6
  call void @llvm.lifetime.end.p0(i64 8, ptr %10) #6
  call void @llvm.lifetime.end.p0(i64 8, ptr %9) #6
  ret void
}