; Function Attrs: nofree noinline norecurse nosync nounwind memory(argmem: readwrite) uwtable
define internal fastcc void @sscal_kernel_inc_8(i64 noundef range(i64 1, -9223372036854775808) %0, float %.0.val, ptr noundef captures(none) %1, i64 noundef range(i64 2, 1) %2) unnamed_addr #1 {
  %.idx = shl nsw i64 %2, 3
  %.idx31 = mul nsw i64 %2, 12
  %.idx32 = shl nsw i64 %2, 4
  br label %4

4:                                                ; preds = %3, %4
  %.02 = phi ptr [ %1, %3 ], [ %16, %4 ]
  %.0301 = phi i64 [ 0, %3 ], [ %17, %4 ]
  %5 = load float, ptr %.02, align 4, !tbaa !3
  %6 = fmul float %.0.val, %5
  %7 = getelementptr inbounds float, ptr %.02, i64 %2
  %8 = load float, ptr %7, align 4, !tbaa !3
  %9 = fmul float %.0.val, %8
  %10 = getelementptr inbounds i8, ptr %.02, i64 %.idx
  %11 = load float, ptr %10, align 4, !tbaa !3
  %12 = fmul float %.0.val, %11
  %13 = getelementptr inbounds i8, ptr %.02, i64 %.idx31
  %14 = load float, ptr %13, align 4, !tbaa !3
  %15 = fmul float %.0.val, %14
  store float %6, ptr %.02, align 4, !tbaa !3
  store float %9, ptr %7, align 4, !tbaa !3
  store float %12, ptr %10, align 4, !tbaa !3
  store float %15, ptr %13, align 4, !tbaa !3
  %16 = getelementptr inbounds i8, ptr %.02, i64 %.idx32
  %17 = add nuw nsw i64 %.0301, 4
  %18 = icmp samesign ult i64 %17, %0
  br i1 %18, label %4, label %19, !llvm.loop !17

19:                                               ; preds = %4
  ret void
}